target datalayout = "e-m:e-p270:32:32-p271:32:32-p272:64:64-i64:64-i128:128-f80:128-n8:16:32:64-S128"
target triple = "x86_64-pc-linux-gnu"

%struct.OSSL_HPKE_KEM_INFO = type { i16, ptr, ptr, ptr, i64, i64, i64, i64, i8 }
%struct.ecx_key_st = type { ptr, ptr, i8, [57 x i8], ptr, i64, i32, %struct.CRYPTO_REF_COUNT }
%struct.CRYPTO_REF_COUNT = type { i32 }
%struct.PROV_ECX_CTX = type { ptr, ptr, ptr, ptr, i32, i32, ptr, i64, ptr, ptr }

@.str = private unnamed_addr constant [51 x i8] c"../openssl/providers/implementations/kem/ecx_kem.c\00", align 1
@LABEL_KEM = internal constant [4 x i8] c"KEM\00", align 1
@__func__.ecx_pubkey = private unnamed_addr constant [11 x i8] c"ecx_pubkey\00", align 1
@.str.9 = private unnamed_addr constant [8 x i8] c"eae_prk\00", align 1
@.str.10 = private unnamed_addr constant [14 x i8] c"shared_secret\00", align 1

; Function Attrs: nounwind uwtable
define internal i32 @dhkem_extract_and_expand(ptr noundef %0, ptr noundef %1, i64 noundef %2, i16 noundef zeroext %3, ptr noundef %4, i64 noundef %5, ptr noundef %6, i64 noundef %7) #0 {
  %9 = alloca i32, align 4
  %10 = alloca ptr, align 8
  %11 = alloca ptr, align 8
  %12 = alloca i64, align 8
  %13 = alloca i16, align 2
  %14 = alloca ptr, align 8
  %15 = alloca i64, align 8
  %16 = alloca ptr, align 8
  %17 = alloca i64, align 8
  %18 = alloca [2 x i8], align 1
  %19 = alloca [64 x i8], align 16
  %20 = alloca i64, align 8
  %21 = alloca i32, align 4
  %22 = alloca i32, align 4
  store ptr %0, ptr %10, align 8, !tbaa !14
  store ptr %1, ptr %11, align 8, !tbaa !8
  store i64 %2, ptr %12, align 8, !tbaa !10
  store i16 %3, ptr %13, align 2, !tbaa !53
  store ptr %4, ptr %14, align 8, !tbaa !8
  store i64 %5, ptr %15, align 8, !tbaa !10
  store ptr %6, ptr %16, align 8, !tbaa !8
  store i64 %7, ptr %17, align 8, !tbaa !10
  call void @llvm.lifetime.start.p0(i64 2, ptr %18) #5
  call void @llvm.lifetime.start.p0(i64 64, ptr %19) #5
  call void @llvm.lifetime.start.p0(i64 8, ptr %20) #5
  %23 = load i64, ptr %12, align 8, !tbaa !10
  store i64 %23, ptr %20, align 8, !tbaa !10
  call void @llvm.lifetime.start.p0(i64 4, ptr %21) #5
  %24 = load i64, ptr %20, align 8, !tbaa !10
  %25 = icmp ugt i64 %24, 64
  br i1 %25, label %26, label %27

26:                                               ; preds = %8
  store i32 0, ptr %9, align 4
  store i32 1, ptr %22, align 4
  br label %64

27:                                               ; preds = %8
  %28 = load i16, ptr %13, align 2, !tbaa !53
  %29 = zext i16 %28 to i32
  %30 = ashr i32 %29, 8
  %31 = and i32 %30, 255
  %32 = trunc i32 %31 to i8
  %33 = getelementptr inbounds [2 x i8], ptr %18, i64 0, i64 0
  store i8 %32, ptr %33, align 1, !tbaa !27
  %34 = load i16, ptr %13, align 2, !tbaa !53
  %35 = zext i16 %34 to i32
  %36 = and i32 %35, 255
  %37 = trunc i32 %36 to i8
  %38 = getelementptr inbounds [2 x i8], ptr %18, i64 0, i64 1
  store i8 %37, ptr %38, align 1, !tbaa !27
  %39 = load ptr, ptr %10, align 8, !tbaa !14
  %40 = getelementptr inbounds [64 x i8], ptr %19, i64 0, i64 0
  %41 = load i64, ptr %20, align 8, !tbaa !10
  %42 = getelementptr inbounds [2 x i8], ptr %18, i64 0, i64 0
  %43 = load ptr, ptr %14, align 8, !tbaa !8
  %44 = load i64, ptr %15, align 8, !tbaa !10
  %45 = call i32 @ossl_hpke_labeled_extract(ptr noundef %39, ptr noundef %40, i64 noundef %41, ptr noundef null, i64 noundef 0, ptr noundef @LABEL_KEM, ptr noundef %42, i64 noundef 2, ptr noundef @.str.9, ptr noundef %43, i64 noundef %44)
  %46 = icmp ne i32 %45, 0
  br i1 %46, label %47, label %58

47:                                               ; preds = %27
  %48 = load ptr, ptr %10, align 8, !tbaa !14
  %49 = load ptr, ptr %11, align 8, !tbaa !8
  %50 = load i64, ptr %12, align 8, !tbaa !10
  %51 = getelementptr inbounds [64 x i8], ptr %19, i64 0, i64 0
  %52 = load i64, ptr %20, align 8, !tbaa !10
  %53 = getelementptr inbounds [2 x i8], ptr %18, i64 0, i64 0
  %54 = load ptr, ptr %16, align 8, !tbaa !8
  %55 = load i64, ptr %17, align 8, !tbaa !10
  %56 = call i32 @ossl_hpke_labeled_expand(ptr noundef %48, ptr noundef %49, i64 noundef %50, ptr noundef %51, i64 noundef %52, ptr noundef @LABEL_KEM, ptr noundef %53, i64 noundef 2, ptr noundef @.str.10, ptr noundef %54, i64 noundef %55)
  %57 = icmp ne i32 %56, 0
  br label %58

58:                                               ; preds = %47, %27
  %59 = phi i1 [ false, %27 ], [ %57, %47 ]
  %60 = zext i1 %59 to i32
  store i32 %60, ptr %21, align 4, !tbaa !12
  %61 = getelementptr inbounds [64 x i8], ptr %19, i64 0, i64 0
  %62 = load i64, ptr %20, align 8, !tbaa !10
  call void @OPENSSL_cleanse(ptr noundef %61, i64 noundef %62)
  %63 = load i32, ptr %21, align 4, !tbaa !12
  store i32 %63, ptr %9, align 4
  store i32 1, ptr %22, align 4
  br label %64

64:                                               ; preds = %58, %26
  call void @llvm.lifetime.end.p0(i64 4, ptr %21) #5
  call void @llvm.lifetime.end.p0(i64 8, ptr %20) #5
  call void @llvm.lifetime.end.p0(i64 64, ptr %19) #5
  call void @llvm.lifetime.end.p0(i64 2, ptr %18) #5
  %65 = load i32, ptr %9, align 4
  ret i32 %65
}

; Function Attrs: nounwind uwtable
define internal ptr @ecx_pubkey(ptr noundef %0) #0 {
  %2 = alloca ptr, align 8
  %3 = alloca ptr, align 8
  store ptr %0, ptr %3, align 8, !tbaa !3
  %4 = load ptr, ptr %3, align 8, !tbaa !3
  %5 = icmp eq ptr %4, null
  br i1 %5, label %13, label %6

6:                                                ; preds = %1
  %7 = load ptr, ptr %3, align 8, !tbaa !3
  %8 = getelementptr inbounds nuw %struct.ecx_key_st, ptr %7, i32 0, i32 2
  %9 = load i8, ptr %8, align 8
  %10 = and i8 %9, 1
  %11 = zext i8 %10 to i32
  %12 = icmp ne i32 %11, 0
  br i1 %12, label %14, label %13

13:                                               ; preds = %6, %1
  call void @ERR_new()
  call void @ERR_set_debug(ptr noundef @.str, i32 noundef 152, ptr noundef @__func__.ecx_pubkey)
  call void (i32, i32, ptr, ...) @ERR_set_error(i32 noundef 57, i32 noundef 220, ptr noundef null)
  store ptr null, ptr %2, align 8
  br label %18

14:                                               ; preds = %6
  %15 = load ptr, ptr %3, align 8, !tbaa !3
  %16 = getelementptr inbounds nuw %struct.ecx_key_st, ptr %15, i32 0, i32 3
  %17 = getelementptr inbounds [57 x i8], ptr %16, i64 0, i64 0
  store ptr %17, ptr %2, align 8
  br label %18

18:                                               ; preds = %14, %13
  %19 = load ptr, ptr %2, align 8
  ret ptr %19
}

; Function Attrs: nounwind uwtable
define internal i32 @generate_ecxdhkm(ptr noundef %0, ptr noundef %1, ptr noundef %2, i64 noundef %3, i32 noundef %4) #0 {
  %6 = alloca ptr, align 8
  %7 = alloca ptr, align 8
  %8 = alloca ptr, align 8
  %9 = alloca i64, align 8
  %10 = alloca i32, align 4
  %11 = alloca i64, align 8
  store ptr %0, ptr %6, align 8, !tbaa !3
  store ptr %1, ptr %7, align 8, !tbaa !3
  store ptr %2, ptr %8, align 8, !tbaa !8
  store i64 %3, ptr %9, align 8, !tbaa !10
  store i32 %4, ptr %10, align 4, !tbaa !12
  call void @llvm.lifetime.start.p0(i64 8, ptr %11) #5
  store i64 0, ptr %11, align 8, !tbaa !10
  %12 = load ptr, ptr %7, align 8, !tbaa !3
  %13 = load ptr, ptr %6, align 8, !tbaa !3
  %14 = load ptr, ptr %6, align 8, !tbaa !3
  %15 = getelementptr inbounds nuw %struct.ecx_key_st, ptr %14, i32 0, i32 5
  %16 = load i64, ptr %15, align 8, !tbaa !48
  %17 = load ptr, ptr %8, align 8, !tbaa !8
  %18 = load i64, ptr %9, align 8, !tbaa !10
  %19 = call i32 @ossl_ecx_compute_key(ptr noundef %12, ptr noundef %13, i64 noundef %16, ptr noundef %17, ptr noundef %11, i64 noundef %18)
  call void @llvm.lifetime.end.p0(i64 8, ptr %11) #5
  ret i32 %19
}

; Function Attrs: nounwind uwtable
define internal i32 @derive_secret(ptr noundef %0, ptr noundef %1, ptr noundef %2, ptr noundef %3, ptr noundef %4, ptr noundef %5, ptr noundef %6, ptr noundef %7) #0 {
  %9 = alloca ptr, align 8
  %10 = alloca ptr, align 8
  %11 = alloca ptr, align 8
  %12 = alloca ptr, align 8
  %13 = alloca ptr, align 8
  %14 = alloca ptr, align 8
  %15 = alloca ptr, align 8
  %16 = alloca ptr, align 8
  %17 = alloca i32, align 4
  %18 = alloca ptr, align 8
  %19 = alloca ptr, align 8
  %20 = alloca [112 x i8], align 16
  %21 = alloca [168 x i8], align 16
  %22 = alloca i64, align 8
  %23 = alloca i64, align 8
  %24 = alloca ptr, align 8
  %25 = alloca i32, align 4
  %26 = alloca i64, align 8
  store ptr %0, ptr %9, align 8, !tbaa !16
  store ptr %1, ptr %10, align 8, !tbaa !8
  store ptr %2, ptr %11, align 8, !tbaa !3
  store ptr %3, ptr %12, align 8, !tbaa !3
  store ptr %4, ptr %13, align 8, !tbaa !3
  store ptr %5, ptr %14, align 8, !tbaa !3
  store ptr %6, ptr %15, align 8, !tbaa !8
  store ptr %7, ptr %16, align 8, !tbaa !8
  call void @llvm.lifetime.start.p0(i64 4, ptr %17) #5
  store i32 0, ptr %17, align 4, !tbaa !12
  call void @llvm.lifetime.start.p0(i64 8, ptr %18) #5
  store ptr null, ptr %18, align 8, !tbaa !14
  call void @llvm.lifetime.start.p0(i64 8, ptr %19) #5
  store ptr null, ptr %19, align 8, !tbaa !8
  call void @llvm.lifetime.start.p0(i64 112, ptr %20) #5
  call void @llvm.lifetime.start.p0(i64 168, ptr %21) #5
  call void @llvm.lifetime.start.p0(i64 8, ptr %22) #5
  store i64 0, ptr %22, align 8, !tbaa !10
  call void @llvm.lifetime.start.p0(i64 8, ptr %23) #5
  store i64 0, ptr %23, align 8, !tbaa !10
  call void @llvm.lifetime.start.p0(i64 8, ptr %24) #5
  %27 = load ptr, ptr %9, align 8, !tbaa !16
  %28 = getelementptr inbounds nuw %struct.PROV_ECX_CTX, ptr %27, i32 0, i32 9
  %29 = load ptr, ptr %28, align 8, !tbaa !46
  store ptr %29, ptr %24, align 8, !tbaa !16
  call void @llvm.lifetime.start.p0(i64 4, ptr %25) #5
  %30 = load ptr, ptr %9, align 8, !tbaa !16
  %31 = getelementptr inbounds nuw %struct.PROV_ECX_CTX, ptr %30, i32 0, i32 1
  %32 = load ptr, ptr %31, align 8, !tbaa !49
  %33 = icmp ne ptr %32, null
  %34 = zext i1 %33 to i32
  store i32 %34, ptr %25, align 4, !tbaa !12
  call void @llvm.lifetime.start.p0(i64 8, ptr %26) #5
  %35 = load ptr, ptr %24, align 8, !tbaa !16
  %36 = getelementptr inbounds nuw %struct.OSSL_HPKE_KEM_INFO, ptr %35, i32 0, i32 6
  %37 = load i64, ptr %36, align 8, !tbaa !52
  store i64 %37, ptr %26, align 8, !tbaa !10
  %38 = load ptr, ptr %11, align 8, !tbaa !3
  %39 = load ptr, ptr %12, align 8, !tbaa !3
  %40 = getelementptr inbounds [112 x i8], ptr %20, i64 0, i64 0
  %41 = load i64, ptr %26, align 8, !tbaa !10
  %42 = trunc i64 %41 to i32
  %43 = call i32 @generate_ecxdhkm(ptr noundef %38, ptr noundef %39, ptr noundef %40, i64 noundef 112, i32 noundef %42)
  %44 = icmp ne i32 %43, 0
  br i1 %44, label %46, label %45

45:                                               ; preds = %8
  br label %134

46:                                               ; preds = %8
  %47 = load i64, ptr %26, align 8, !tbaa !10
  store i64 %47, ptr %23, align 8, !tbaa !10
  %48 = load i32, ptr %25, align 4, !tbaa !12
  %49 = icmp ne i32 %48, 0
  br i1 %49, label %50, label %75

50:                                               ; preds = %46
  %51 = load ptr, ptr %13, align 8, !tbaa !3
  %52 = load ptr, ptr %14, align 8, !tbaa !3
  %53 = getelementptr inbounds [112 x i8], ptr %20, i64 0, i64 0
  %54 = load i64, ptr %23, align 8, !tbaa !10
  %55 = getelementptr inbounds nuw i8, ptr %53, i64 %54
  %56 = load i64, ptr %23, align 8, !tbaa !10
  %57 = sub i64 112, %56
  %58 = load i64, ptr %26, align 8, !tbaa !10
  %59 = trunc i64 %58 to i32
  %60 = call i32 @generate_ecxdhkm(ptr noundef %51, ptr noundef %52, ptr noundef %55, i64 noundef %57, i32 noundef %59)
  %61 = icmp ne i32 %60, 0
  br i1 %61, label %63, label %62

62:                                               ; preds = %50
  br label %134

63:                                               ; preds = %50
  %64 = load ptr, ptr %9, align 8, !tbaa !16
  %65 = getelementptr inbounds nuw %struct.PROV_ECX_CTX, ptr %64, i32 0, i32 1
  %66 = load ptr, ptr %65, align 8, !tbaa !49
  %67 = call ptr @ecx_pubkey(ptr noundef %66)
  store ptr %67, ptr %19, align 8, !tbaa !8
  %68 = load ptr, ptr %19, align 8, !tbaa !8
  %69 = icmp eq ptr %68, null
  br i1 %69, label %70, label %71

70:                                               ; preds = %63
  br label %134

71:                                               ; preds = %63
  %72 = load i64, ptr %26, align 8, !tbaa !10
  %73 = load i64, ptr %23, align 8, !tbaa !10
  %74 = add i64 %73, %72
  store i64 %74, ptr %23, align 8, !tbaa !10
  br label %75

75:                                               ; preds = %71, %46
  %76 = load i64, ptr %26, align 8, !tbaa !10
  %77 = load i64, ptr %23, align 8, !tbaa !10
  %78 = add i64 %76, %77
  store i64 %78, ptr %22, align 8, !tbaa !10
  %79 = load i64, ptr %22, align 8, !tbaa !10
  %80 = icmp ugt i64 %79, 168
  br i1 %80, label %81, label %82

81:                                               ; preds = %75
  br label %134

82:                                               ; preds = %75
  %83 = getelementptr inbounds [168 x i8], ptr %21, i64 0, i64 0
  %84 = load ptr, ptr %15, align 8, !tbaa !8
  %85 = load i64, ptr %26, align 8, !tbaa !10
  call void @llvm.memcpy.p0.p0.i64(ptr align 16 %83, ptr align 1 %84, i64 %85, i1 false)
  %86 = getelementptr inbounds [168 x i8], ptr %21, i64 0, i64 0
  %87 = load i64, ptr %26, align 8, !tbaa !10
  %88 = getelementptr inbounds nuw i8, ptr %86, i64 %87
  %89 = load ptr, ptr %16, align 8, !tbaa !8
  %90 = load i64, ptr %26, align 8, !tbaa !10
  call void @llvm.memcpy.p0.p0.i64(ptr align 1 %88, ptr align 1 %89, i64 %90, i1 false)
  %91 = load i32, ptr %25, align 4, !tbaa !12
  %92 = icmp ne i32 %91, 0
  br i1 %92, label %93, label %100

93:                                               ; preds = %82
  %94 = getelementptr inbounds [168 x i8], ptr %21, i64 0, i64 0
  %95 = load i64, ptr %26, align 8, !tbaa !10
  %96 = mul i64 2, %95
  %97 = getelementptr inbounds nuw i8, ptr %94, i64 %96
  %98 = load ptr, ptr %19, align 8, !tbaa !8
  %99 = load i64, ptr %26, align 8, !tbaa !10
  call void @llvm.memcpy.p0.p0.i64(ptr align 1 %97, ptr align 1 %98, i64 %99, i1 false)
  br label %100

100:                                              ; preds = %93, %82
  %101 = load ptr, ptr %9, align 8, !tbaa !16
  %102 = getelementptr inbounds nuw %struct.PROV_ECX_CTX, ptr %101, i32 0, i32 8
  %103 = load ptr, ptr %102, align 8, !tbaa !47
  %104 = load ptr, ptr %24, align 8, !tbaa !16
  %105 = getelementptr inbounds nuw %struct.OSSL_HPKE_KEM_INFO, ptr %104, i32 0, i32 3
  %106 = load ptr, ptr %105, align 8, !tbaa !20
  %107 = load ptr, ptr %9, align 8, !tbaa !16
  %108 = getelementptr inbounds nuw %struct.PROV_ECX_CTX, ptr %107, i32 0, i32 2
  %109 = load ptr, ptr %108, align 8, !tbaa !30
  %110 = load ptr, ptr %9, align 8, !tbaa !16
  %111 = getelementptr inbounds nuw %struct.PROV_ECX_CTX, ptr %110, i32 0, i32 3
  %112 = load ptr, ptr %111, align 8, !tbaa !51
  %113 = call ptr @ossl_kdf_ctx_create(ptr noundef %103, ptr noundef %106, ptr noundef %109, ptr noundef %112)
  store ptr %113, ptr %18, align 8, !tbaa !14
  %114 = load ptr, ptr %18, align 8, !tbaa !14
  %115 = icmp eq ptr %114, null
  br i1 %115, label %116, label %117

116:                                              ; preds = %100
  br label %134

117:                                              ; preds = %100
  %118 = load ptr, ptr %18, align 8, !tbaa !14
  %119 = load ptr, ptr %10, align 8, !tbaa !8
  %120 = load ptr, ptr %24, align 8, !tbaa !16
  %121 = getelementptr inbounds nuw %struct.OSSL_HPKE_KEM_INFO, ptr %120, i32 0, i32 4
  %122 = load i64, ptr %121, align 8, !tbaa !28
  %123 = load ptr, ptr %24, align 8, !tbaa !16
  %124 = getelementptr inbounds nuw %struct.OSSL_HPKE_KEM_INFO, ptr %123, i32 0, i32 0
  %125 = load i16, ptr %124, align 8, !tbaa !26
  %126 = getelementptr inbounds [112 x i8], ptr %20, i64 0, i64 0
  %127 = load i64, ptr %23, align 8, !tbaa !10
  %128 = getelementptr inbounds [168 x i8], ptr %21, i64 0, i64 0
  %129 = load i64, ptr %22, align 8, !tbaa !10
  %130 = call i32 @dhkem_extract_and_expand(ptr noundef %118, ptr noundef %119, i64 noundef %122, i16 noundef zeroext %125, ptr noundef %126, i64 noundef %127, ptr noundef %128, i64 noundef %129)
  %131 = icmp ne i32 %130, 0
  br i1 %131, label %133, label %132

132:                                              ; preds = %117
  br label %134

133:                                              ; preds = %117
  store i32 1, ptr %17, align 4, !tbaa !12
  br label %134

134:                                              ; preds = %133, %132, %116, %81, %70, %62, %45
  %135 = getelementptr inbounds [112 x i8], ptr %20, i64 0, i64 0
  %136 = load i64, ptr %23, align 8, !tbaa !10
  call void @OPENSSL_cleanse(ptr noundef %135, i64 noundef %136)
  %137 = load ptr, ptr %18, align 8, !tbaa !14
  call void @EVP_KDF_CTX_free(ptr noundef %137)
  %138 = load i32, ptr %17, align 4, !tbaa !12
  call void @llvm.lifetime.end.p0(i64 8, ptr %26) #5
  call void @llvm.lifetime.end.p0(i64 4, ptr %25) #5
  call void @llvm.lifetime.end.p0(i64 8, ptr %24) #5
  call void @llvm.lifetime.end.p0(i64 8, ptr %23) #5
  call void @llvm.lifetime.end.p0(i64 8, ptr %22) #5
  call void @llvm.lifetime.end.p0(i64 168, ptr %21) #5
  call void @llvm.lifetime.end.p0(i64 112, ptr %20) #5
  call void @llvm.lifetime.end.p0(i64 8, ptr %19) #5
  call void @llvm.lifetime.end.p0(i64 8, ptr %18) #5
  call void @llvm.lifetime.end.p0(i64 4, ptr %17) #5
  ret i32 %138
}