; Function Attrs: nounwind uwtable
define internal fastcc range(i32 0, 2) i32 @derive_secret(ptr noundef readonly captures(none) %0, ptr noundef %1, ptr noundef %2, ptr noundef %3, ptr noundef %4, ptr noundef %5, ptr noundef readonly captures(none) %6, ptr noundef nonnull readonly captures(none) %7) unnamed_addr #0 {
  %9 = alloca [2 x i8], align 1
  %10 = alloca [64 x i8], align 16
  %11 = alloca i64, align 8
  %12 = alloca i64, align 8
  %13 = alloca [112 x i8], align 16
  %14 = alloca [168 x i8], align 16
  call void @llvm.lifetime.start.p0(i64 112, ptr nonnull %13) #5
  call void @llvm.lifetime.start.p0(i64 168, ptr nonnull %14) #5
  %15 = getelementptr inbounds nuw i8, ptr %0, i64 64
  %16 = load ptr, ptr %15, align 8, !tbaa !26
  %17 = getelementptr inbounds nuw i8, ptr %0, i64 8
  %18 = load ptr, ptr %17, align 8, !tbaa !35
  %19 = getelementptr inbounds nuw i8, ptr %16, i64 48
  %20 = load i64, ptr %19, align 8, !tbaa !47
  call void @llvm.lifetime.start.p0(i64 8, ptr nonnull %12) #5
  store i64 0, ptr %12, align 8, !tbaa !31
  %21 = getelementptr inbounds nuw i8, ptr %2, i64 88
  %22 = load i64, ptr %21, align 8, !tbaa !46
  %23 = call i32 @ossl_ecx_compute_key(ptr noundef %3, ptr noundef %2, i64 noundef %22, ptr noundef nonnull %13, ptr noundef nonnull %12, i64 noundef 112) #5
  call void @llvm.lifetime.end.p0(i64 8, ptr nonnull %12) #5
  %.not49 = icmp eq i32 %23, 0
  br i1 %.not49, label %74, label %24

24:                                               ; preds = %8
  %.not = icmp eq ptr %18, null
  br i1 %.not, label %38, label %25

25:                                               ; preds = %24
  %26 = getelementptr inbounds nuw i8, ptr %13, i64 %20
  %27 = sub i64 112, %20
  call void @llvm.lifetime.start.p0(i64 8, ptr nonnull %11) #5
  store i64 0, ptr %11, align 8, !tbaa !31
  %28 = getelementptr inbounds nuw i8, ptr %4, i64 88
  %29 = load i64, ptr %28, align 8, !tbaa !46
  %30 = call i32 @ossl_ecx_compute_key(ptr noundef %5, ptr noundef %4, i64 noundef %29, ptr noundef nonnull %26, ptr noundef nonnull %11, i64 noundef %27) #5
  call void @llvm.lifetime.end.p0(i64 8, ptr nonnull %11) #5
  %.not50 = icmp eq i32 %30, 0
  br i1 %.not50, label %74, label %31

31:                                               ; preds = %25
  %32 = load ptr, ptr %17, align 8, !tbaa !35
  %33 = icmp eq ptr %32, null
  br i1 %33, label %ecx_pubkey.exit.thread, label %34

34:                                               ; preds = %31
  %35 = getelementptr inbounds nuw i8, ptr %32, i64 16
  %36 = load i8, ptr %35, align 8
  %37 = and i8 %36, 1
  %.not.i = icmp eq i8 %37, 0
  br i1 %.not.i, label %ecx_pubkey.exit.thread, label %.thread

ecx_pubkey.exit.thread:                           ; preds = %31, %34
  call void @ERR_new() #5
  call void @ERR_set_debug(ptr noundef nonnull @.str, i32 noundef 152, ptr noundef nonnull @__func__.ecx_pubkey) #5
  call void (i32, i32, ptr, ...) @ERR_set_error(i32 noundef 57, i32 noundef 220, ptr noundef null) #5
  br label %74

38:                                               ; preds = %24
  %39 = shl i64 %20, 1
  %40 = icmp ugt i64 %39, 168
  br i1 %40, label %74, label %44

.thread:                                          ; preds = %34
  %41 = shl i64 %20, 1
  %42 = mul i64 %20, 3
  %43 = icmp ugt i64 %42, 168
  br i1 %43, label %74, label %45

44:                                               ; preds = %38
  call void @llvm.memcpy.p0.p0.i64(ptr nonnull align 16 %14, ptr align 1 %6, i64 %20, i1 false)
  br label %48

45:                                               ; preds = %.thread
  %46 = getelementptr inbounds nuw i8, ptr %32, i64 17
  call void @llvm.memcpy.p0.p0.i64(ptr nonnull align 16 %14, ptr align 1 %6, i64 %20, i1 false)
  %47 = getelementptr inbounds nuw i8, ptr %14, i64 %20
  call void @llvm.memcpy.p0.p0.i64(ptr nonnull align 1 %47, ptr nonnull align 1 %7, i64 %20, i1 false)
  br label %48

48:                                               ; preds = %44, %45
  %.sink73 = phi i64 [ %20, %44 ], [ %41, %45 ]
  %.sink72 = phi ptr [ %7, %44 ], [ %46, %45 ]
  %49 = phi i64 [ %39, %44 ], [ %42, %45 ]
  %50 = getelementptr inbounds nuw i8, ptr %14, i64 %.sink73
  call void @llvm.memcpy.p0.p0.i64(ptr nonnull align 1 %50, ptr nonnull align 1 %.sink72, i64 %20, i1 false)
  %51 = getelementptr inbounds nuw i8, ptr %0, i64 56
  %52 = load ptr, ptr %51, align 8, !tbaa !27
  %53 = getelementptr inbounds nuw i8, ptr %16, i64 24
  %54 = load ptr, ptr %53, align 8, !tbaa !16
  %55 = getelementptr inbounds nuw i8, ptr %0, i64 16
  %56 = load ptr, ptr %55, align 8, !tbaa !22
  %57 = getelementptr inbounds nuw i8, ptr %0, i64 24
  %58 = load ptr, ptr %57, align 8, !tbaa !34
  %59 = call ptr @ossl_kdf_ctx_create(ptr noundef %52, ptr noundef %54, ptr noundef %56, ptr noundef %58) #5
  %60 = icmp eq ptr %59, null
  br i1 %60, label %74, label %61

61:                                               ; preds = %48
  %62 = getelementptr inbounds nuw i8, ptr %16, i64 32
  %63 = load i64, ptr %62, align 8, !tbaa !21
  %64 = load i16, ptr %16, align 8, !tbaa !19
  call void @llvm.lifetime.start.p0(i64 2, ptr nonnull %9) #5
  call void @llvm.lifetime.start.p0(i64 64, ptr nonnull %10) #5
  %65 = icmp ugt i64 %63, 64
  br i1 %65, label %.sink.split, label %66

66:                                               ; preds = %61
  %67 = lshr i16 %64, 8
  %68 = trunc nuw i16 %67 to i8
  store i8 %68, ptr %9, align 1, !tbaa !20
  %69 = trunc i16 %64 to i8
  %70 = getelementptr inbounds nuw i8, ptr %9, i64 1
  store i8 %69, ptr %70, align 1, !tbaa !20
  %71 = call i32 @ossl_hpke_labeled_extract(ptr noundef nonnull %59, ptr noundef nonnull %10, i64 noundef %63, ptr noundef null, i64 noundef 0, ptr noundef nonnull @LABEL_KEM, ptr noundef nonnull %9, i64 noundef 2, ptr noundef nonnull @.str.9, ptr noundef nonnull %13, i64 noundef %.sink73) #5
  %.not.i52 = icmp eq i32 %71, 0
  br i1 %.not.i52, label %dhkem_extract_and_expand.exit.thread68, label %dhkem_extract_and_expand.exit

dhkem_extract_and_expand.exit.thread68:           ; preds = %66
  call void @OPENSSL_cleanse(ptr noundef nonnull %10, i64 noundef %63) #5
  br label %.sink.split

dhkem_extract_and_expand.exit:                    ; preds = %66
  %72 = call i32 @ossl_hpke_labeled_expand(ptr noundef nonnull %59, ptr noundef %1, i64 noundef %63, ptr noundef nonnull %10, i64 noundef %63, ptr noundef nonnull @LABEL_KEM, ptr noundef nonnull %9, i64 noundef 2, ptr noundef nonnull @.str.10, ptr noundef nonnull %14, i64 noundef range(i64 0, 169) %49) #5
  %.fr = freeze i32 %72
  %.not71 = icmp eq i32 %.fr, 0
  call void @OPENSSL_cleanse(ptr noundef nonnull %10, i64 noundef %63) #5
  call void @llvm.lifetime.end.p0(i64 64, ptr nonnull %10) #5
  call void @llvm.lifetime.end.p0(i64 2, ptr nonnull %9) #5
  br i1 %.not71, label %73, label %74

.sink.split:                                      ; preds = %61, %dhkem_extract_and_expand.exit.thread68
  call void @llvm.lifetime.end.p0(i64 64, ptr nonnull %10) #5
  call void @llvm.lifetime.end.p0(i64 2, ptr nonnull %9) #5
  br label %73

73:                                               ; preds = %.sink.split, %dhkem_extract_and_expand.exit
  br label %74

74:                                               ; preds = %73, %dhkem_extract_and_expand.exit, %.thread, %ecx_pubkey.exit.thread, %48, %38, %25, %8
  %.044 = phi i64 [ %20, %38 ], [ %.sink73, %48 ], [ %20, %25 ], [ 0, %8 ], [ %20, %ecx_pubkey.exit.thread ], [ %41, %.thread ], [ %.sink73, %dhkem_extract_and_expand.exit ], [ %.sink73, %73 ]
  %.042 = phi ptr [ null, %38 ], [ null, %48 ], [ null, %25 ], [ null, %8 ], [ null, %ecx_pubkey.exit.thread ], [ null, %.thread ], [ %59, %dhkem_extract_and_expand.exit ], [ %59, %73 ]
  %.0 = phi i32 [ 0, %38 ], [ 0, %48 ], [ 0, %25 ], [ 0, %8 ], [ 0, %ecx_pubkey.exit.thread ], [ 0, %.thread ], [ 1, %dhkem_extract_and_expand.exit ], [ 0, %73 ]
  call void @OPENSSL_cleanse(ptr noundef nonnull %13, i64 noundef %.044) #5
  call void @EVP_KDF_CTX_free(ptr noundef %.042) #5
  call void @llvm.lifetime.end.p0(i64 168, ptr nonnull %14) #5
  call void @llvm.lifetime.end.p0(i64 112, ptr nonnull %13) #5
  ret i32 %.0
}